; Function Attrs: mustprogress nofree nounwind willreturn memory(write, argmem: readwrite) uwtable
define noundef double @_ZNK8QuantLib18AnalyticH1HWEngine9Fj_Helper6lambdaEd(ptr nocapture noundef nonnull readonly align 8 dereferenceable(80) %this, double noundef %t) local_unnamed_addr #10 align 2 {
entry:
  %kappa_ = getelementptr inbounds nuw i8, ptr %this, i64 32
  %0 = load double, ptr %kappa_, align 8, !tbaa !75
  %mul = fmul double %0, 4.000000e+00
  %v0_ = getelementptr inbounds nuw i8, ptr %this, i64 24
  %1 = load double, ptr %v0_, align 8, !tbaa !74
  %mul2 = fmul double %mul, %1
  %fneg = fneg double %0
  %mul4 = fmul double %t, %fneg
  %call = tail call double @exp(double noundef %mul4) #24, !tbaa !83
  %mul5 = fmul double %mul2, %call
  %gamma_ = getelementptr inbounds nuw i8, ptr %this, i64 48
  %2 = load double, ptr %gamma_, align 8, !tbaa !77
  %mul7 = fmul double %2, %2
  %call11 = tail call double @exp(double noundef %mul4) #24, !tbaa !83
  %sub = fsub double 1.000000e+00, %call11
  %mul12 = fmul double %mul7, %sub
  %div = fdiv double %mul5, %mul12
  ret double %div
}